; Function Attrs: mustprogress uwtable
define void @_ZN3zmq8object_t18send_term_endpointEPNS_5own_tEPNSt7__cxx1112basic_stringIcSt11char_traitsIcESaIcEEE(ptr noundef nonnull readonly align 8 captures(none) dereferenceable(20) %0, ptr noundef %1, ptr noundef %2) local_unnamed_addr #6 align 2 {
  %4 = alloca %"struct.zmq::command_t", align 64
  call void @llvm.lifetime.start.p0(i64 64, ptr nonnull %4) #11
  store ptr %1, ptr %4, align 64, !tbaa !20
  %5 = getelementptr inbounds nuw i8, ptr %4, i64 8
  store i32 14, ptr %5, align 8, !tbaa !13
  %6 = getelementptr inbounds nuw i8, ptr %4, i64 16
  store ptr %2, ptr %6, align 16, !tbaa !17
  %7 = getelementptr inbounds nuw i8, ptr %0, i64 8
  %8 = load ptr, ptr %7, align 8, !tbaa !6
  %9 = getelementptr inbounds nuw i8, ptr %1, i64 16
  %10 = load i32, ptr %9, align 8, !tbaa !12
  call void @_ZN3zmq5ctx_t12send_commandEjRKNS_9command_tE(ptr noundef nonnull align 8 dereferenceable(648) %8, i32 noundef %10, ptr noundef nonnull align 64 dereferenceable(64) %4)
  call void @llvm.lifetime.end.p0(i64 64, ptr nonnull %4) #11
  ret void
}